; Function Attrs: mustprogress nounwind uwtable
define internal fastcc i64 @_ZL39rebuildAttributedTypeWithoutNullabilityRN5clang10ASTContextENS_8QualTypeE(ptr noundef nonnull align 8 dereferenceable(23096) %0, i64 %1) unnamed_addr #0 {
  %3 = and i64 %1, -16
  %4 = inttoptr i64 %3 to ptr
  %5 = load ptr, ptr %4, align 16
  %6 = getelementptr inbounds nuw i8, ptr %5, i64 16
  %7 = load i8, ptr %6, align 16
  %8 = icmp ne i8 %7, 8
  %.not16 = icmp eq ptr %5, null
  %.not = or i1 %.not16, %8
  br i1 %.not, label %common.ret18, label %9

9:                                                ; preds = %2
  %10 = tail call i16 @_ZNK5clang14AttributedType23getImmediateNullabilityEv(ptr noundef nonnull align 16 dereferenceable(48) %5) #21
  %11 = and i16 %10, 256
  %.not17 = icmp eq i16 %11, 0
  %12 = getelementptr inbounds nuw i8, ptr %5, i64 32
  %.sroa.0.0.copyload.i12 = load i64, ptr %12, align 16
  br i1 %.not17, label %13, label %common.ret18

common.ret18:                                     ; preds = %2, %9, %13
  %common.ret18.op = phi i64 [ %18, %13 ], [ %1, %2 ], [ %.sroa.0.0.copyload.i12, %9 ]
  ret i64 %common.ret18.op

13:                                               ; preds = %9
  %14 = tail call fastcc i64 @_ZL39rebuildAttributedTypeWithoutNullabilityRN5clang10ASTContextENS_8QualTypeE(ptr noundef nonnull align 8 dereferenceable(23096) %0, i64 %.sroa.0.0.copyload.i12)
  %15 = load i32, ptr %6, align 16
  %16 = lshr i32 %15, 19
  %17 = getelementptr inbounds nuw i8, ptr %5, i64 40
  %.sroa.0.0.copyload.i13 = load i64, ptr %17, align 8
  %18 = tail call i64 @_ZNK5clang10ASTContext17getAttributedTypeENS_4attr4KindENS_8QualTypeES3_(ptr noundef nonnull align 8 dereferenceable(23096) %0, i32 noundef %16, i64 %14, i64 %.sroa.0.0.copyload.i13) #21
  br label %common.ret18
}